target datalayout = "e-m:e-p270:32:32-p271:32:32-p272:64:64-i64:64-i128:128-f80:128-n8:16:32:64-S128"
target triple = "x86_64-pc-linux-gnu"

%"struct.ImStb::StbUndoState" = type { [99 x %"struct.ImStb::StbUndoRecord"], [999 x i8], i16, i16, i32, i32 }
%"struct.ImStb::StbUndoRecord" = type { i32, i32, i32, i32 }

; Function Attrs: mustprogress nounwind uwtable
define internal void @_ZN5ImStbL25stb_textedit_discard_undoEPNS_12StbUndoStateE(ptr noundef %0) #4 {
  %2 = alloca ptr, align 8
  %3 = alloca i32, align 4
  %4 = alloca i32, align 4
  store ptr %0, ptr %2, align 8, !tbaa !255
  %5 = load ptr, ptr %2, align 8, !tbaa !255
  %6 = getelementptr inbounds nuw %"struct.ImStb::StbUndoState", ptr %5, i32 0, i32 2
  %7 = load i16, ptr %6, align 4, !tbaa !553
  %8 = sext i16 %7 to i32
  %9 = icmp sgt i32 %8, 0
  br i1 %9, label %10, label %90

10:                                               ; preds = %1
  %11 = load ptr, ptr %2, align 8, !tbaa !255
  %12 = getelementptr inbounds nuw %"struct.ImStb::StbUndoState", ptr %11, i32 0, i32 0
  %13 = getelementptr inbounds [99 x %"struct.ImStb::StbUndoRecord"], ptr %12, i64 0, i64 0
  %14 = getelementptr inbounds nuw %"struct.ImStb::StbUndoRecord", ptr %13, i32 0, i32 3
  %15 = load i32, ptr %14, align 4, !tbaa !557
  %16 = icmp sge i32 %15, 0
  br i1 %16, label %17, label %73

17:                                               ; preds = %10
  call void @llvm.lifetime.start.p0(i64 4, ptr %3) #17
  %18 = load ptr, ptr %2, align 8, !tbaa !255
  %19 = getelementptr inbounds nuw %"struct.ImStb::StbUndoState", ptr %18, i32 0, i32 0
  %20 = getelementptr inbounds [99 x %"struct.ImStb::StbUndoRecord"], ptr %19, i64 0, i64 0
  %21 = getelementptr inbounds nuw %"struct.ImStb::StbUndoRecord", ptr %20, i32 0, i32 1
  %22 = load i32, ptr %21, align 4, !tbaa !559
  store i32 %22, ptr %3, align 4, !tbaa !9
  call void @llvm.lifetime.start.p0(i64 4, ptr %4) #17
  %23 = load i32, ptr %3, align 4, !tbaa !9
  %24 = load ptr, ptr %2, align 8, !tbaa !255
  %25 = getelementptr inbounds nuw %"struct.ImStb::StbUndoState", ptr %24, i32 0, i32 4
  %26 = load i32, ptr %25, align 4, !tbaa !555
  %27 = sub nsw i32 %26, %23
  store i32 %27, ptr %25, align 4, !tbaa !555
  %28 = load ptr, ptr %2, align 8, !tbaa !255
  %29 = getelementptr inbounds nuw %"struct.ImStb::StbUndoState", ptr %28, i32 0, i32 1
  %30 = getelementptr inbounds [999 x i8], ptr %29, i64 0, i64 0
  %31 = load ptr, ptr %2, align 8, !tbaa !255
  %32 = getelementptr inbounds nuw %"struct.ImStb::StbUndoState", ptr %31, i32 0, i32 1
  %33 = getelementptr inbounds [999 x i8], ptr %32, i64 0, i64 0
  %34 = load i32, ptr %3, align 4, !tbaa !9
  %35 = sext i32 %34 to i64
  %36 = getelementptr inbounds i8, ptr %33, i64 %35
  %37 = load ptr, ptr %2, align 8, !tbaa !255
  %38 = getelementptr inbounds nuw %"struct.ImStb::StbUndoState", ptr %37, i32 0, i32 4
  %39 = load i32, ptr %38, align 4, !tbaa !555
  %40 = sext i32 %39 to i64
  %41 = mul i64 %40, 1
  call void @llvm.memmove.p0.p0.i64(ptr align 4 %30, ptr align 1 %36, i64 %41, i1 false)
  store i32 0, ptr %4, align 4, !tbaa !9
  br label %42

42:                                               ; preds = %69, %17
  %43 = load i32, ptr %4, align 4, !tbaa !9
  %44 = load ptr, ptr %2, align 8, !tbaa !255
  %45 = getelementptr inbounds nuw %"struct.ImStb::StbUndoState", ptr %44, i32 0, i32 2
  %46 = load i16, ptr %45, align 4, !tbaa !553
  %47 = sext i16 %46 to i32
  %48 = icmp slt i32 %43, %47
  br i1 %48, label %49, label %72

49:                                               ; preds = %42
  %50 = load ptr, ptr %2, align 8, !tbaa !255
  %51 = getelementptr inbounds nuw %"struct.ImStb::StbUndoState", ptr %50, i32 0, i32 0
  %52 = load i32, ptr %4, align 4, !tbaa !9
  %53 = sext i32 %52 to i64
  %54 = getelementptr inbounds [99 x %"struct.ImStb::StbUndoRecord"], ptr %51, i64 0, i64 %53
  %55 = getelementptr inbounds nuw %"struct.ImStb::StbUndoRecord", ptr %54, i32 0, i32 3
  %56 = load i32, ptr %55, align 4, !tbaa !557
  %57 = icmp sge i32 %56, 0
  br i1 %57, label %58, label %68

58:                                               ; preds = %49
  %59 = load i32, ptr %3, align 4, !tbaa !9
  %60 = load ptr, ptr %2, align 8, !tbaa !255
  %61 = getelementptr inbounds nuw %"struct.ImStb::StbUndoState", ptr %60, i32 0, i32 0
  %62 = load i32, ptr %4, align 4, !tbaa !9
  %63 = sext i32 %62 to i64
  %64 = getelementptr inbounds [99 x %"struct.ImStb::StbUndoRecord"], ptr %61, i64 0, i64 %63
  %65 = getelementptr inbounds nuw %"struct.ImStb::StbUndoRecord", ptr %64, i32 0, i32 3
  %66 = load i32, ptr %65, align 4, !tbaa !557
  %67 = sub nsw i32 %66, %59
  store i32 %67, ptr %65, align 4, !tbaa !557
  br label %68

68:                                               ; preds = %58, %49
  br label %69

69:                                               ; preds = %68
  %70 = load i32, ptr %4, align 4, !tbaa !9
  %71 = add nsw i32 %70, 1
  store i32 %71, ptr %4, align 4, !tbaa !9
  br label %42, !llvm.loop !930

72:                                               ; preds = %42
  call void @llvm.lifetime.end.p0(i64 4, ptr %4) #17
  call void @llvm.lifetime.end.p0(i64 4, ptr %3) #17
  br label %73

73:                                               ; preds = %72, %10
  %74 = load ptr, ptr %2, align 8, !tbaa !255
  %75 = getelementptr inbounds nuw %"struct.ImStb::StbUndoState", ptr %74, i32 0, i32 2
  %76 = load i16, ptr %75, align 4, !tbaa !553
  %77 = add i16 %76, -1
  store i16 %77, ptr %75, align 4, !tbaa !553
  %78 = load ptr, ptr %2, align 8, !tbaa !255
  %79 = getelementptr inbounds nuw %"struct.ImStb::StbUndoState", ptr %78, i32 0, i32 0
  %80 = getelementptr inbounds [99 x %"struct.ImStb::StbUndoRecord"], ptr %79, i64 0, i64 0
  %81 = load ptr, ptr %2, align 8, !tbaa !255
  %82 = getelementptr inbounds nuw %"struct.ImStb::StbUndoState", ptr %81, i32 0, i32 0
  %83 = getelementptr inbounds [99 x %"struct.ImStb::StbUndoRecord"], ptr %82, i64 0, i64 0
  %84 = getelementptr inbounds %"struct.ImStb::StbUndoRecord", ptr %83, i64 1
  %85 = load ptr, ptr %2, align 8, !tbaa !255
  %86 = getelementptr inbounds nuw %"struct.ImStb::StbUndoState", ptr %85, i32 0, i32 2
  %87 = load i16, ptr %86, align 4, !tbaa !553
  %88 = sext i16 %87 to i64
  %89 = mul i64 %88, 16
  call void @llvm.memmove.p0.p0.i64(ptr align 4 %80, ptr align 4 %84, i64 %89, i1 false)
  br label %90

90:                                               ; preds = %73, %1
  ret void
}

; Function Attrs: mustprogress nounwind uwtable
define internal void @_ZN5ImStbL23stb_textedit_flush_redoEPNS_12StbUndoStateE(ptr noundef %0) #4 {
  %2 = alloca ptr, align 8
  store ptr %0, ptr %2, align 8, !tbaa !255
  %3 = load ptr, ptr %2, align 8, !tbaa !255
  %4 = getelementptr inbounds nuw %"struct.ImStb::StbUndoState", ptr %3, i32 0, i32 3
  store i16 99, ptr %4, align 2, !tbaa !554
  %5 = load ptr, ptr %2, align 8, !tbaa !255
  %6 = getelementptr inbounds nuw %"struct.ImStb::StbUndoState", ptr %5, i32 0, i32 5
  store i32 999, ptr %6, align 4, !tbaa !556
  ret void
}

; Function Attrs: mustprogress uwtable
define internal noundef ptr @_ZN5ImStbL27stb_text_create_undo_recordEPNS_12StbUndoStateEi(ptr noundef %0, i32 noundef %1) #8 {
  %3 = alloca ptr, align 8
  %4 = alloca ptr, align 8
  %5 = alloca i32, align 4
  store ptr %0, ptr %4, align 8, !tbaa !255
  store i32 %1, ptr %5, align 4, !tbaa !9
  %6 = load ptr, ptr %4, align 8, !tbaa !255
  call void @_ZN5ImStbL23stb_textedit_flush_redoEPNS_12StbUndoStateE(ptr noundef %6)
  %7 = load ptr, ptr %4, align 8, !tbaa !255
  %8 = getelementptr inbounds nuw %"struct.ImStb::StbUndoState", ptr %7, i32 0, i32 2
  %9 = load i16, ptr %8, align 4, !tbaa !553
  %10 = sext i16 %9 to i32
  %11 = icmp eq i32 %10, 99
  br i1 %11, label %12, label %14

12:                                               ; preds = %2
  %13 = load ptr, ptr %4, align 8, !tbaa !255
  call void @_ZN5ImStbL25stb_textedit_discard_undoEPNS_12StbUndoStateE(ptr noundef %13)
  br label %14

14:                                               ; preds = %12, %2
  %15 = load i32, ptr %5, align 4, !tbaa !9
  %16 = icmp sgt i32 %15, 999
  br i1 %16, label %17, label %22

17:                                               ; preds = %14
  %18 = load ptr, ptr %4, align 8, !tbaa !255
  %19 = getelementptr inbounds nuw %"struct.ImStb::StbUndoState", ptr %18, i32 0, i32 2
  store i16 0, ptr %19, align 4, !tbaa !553
  %20 = load ptr, ptr %4, align 8, !tbaa !255
  %21 = getelementptr inbounds nuw %"struct.ImStb::StbUndoState", ptr %20, i32 0, i32 4
  store i32 0, ptr %21, align 4, !tbaa !555
  store ptr null, ptr %3, align 8
  br label %41

22:                                               ; preds = %14
  br label %23

23:                                               ; preds = %30, %22
  %24 = load ptr, ptr %4, align 8, !tbaa !255
  %25 = getelementptr inbounds nuw %"struct.ImStb::StbUndoState", ptr %24, i32 0, i32 4
  %26 = load i32, ptr %25, align 4, !tbaa !555
  %27 = load i32, ptr %5, align 4, !tbaa !9
  %28 = add nsw i32 %26, %27
  %29 = icmp sgt i32 %28, 999
  br i1 %29, label %30, label %32

30:                                               ; preds = %23
  %31 = load ptr, ptr %4, align 8, !tbaa !255
  call void @_ZN5ImStbL25stb_textedit_discard_undoEPNS_12StbUndoStateE(ptr noundef %31)
  br label %23, !llvm.loop !929

32:                                               ; preds = %23
  %33 = load ptr, ptr %4, align 8, !tbaa !255
  %34 = getelementptr inbounds nuw %"struct.ImStb::StbUndoState", ptr %33, i32 0, i32 0
  %35 = load ptr, ptr %4, align 8, !tbaa !255
  %36 = getelementptr inbounds nuw %"struct.ImStb::StbUndoState", ptr %35, i32 0, i32 2
  %37 = load i16, ptr %36, align 4, !tbaa !553
  %38 = add i16 %37, 1
  store i16 %38, ptr %36, align 4, !tbaa !553
  %39 = sext i16 %37 to i64
  %40 = getelementptr inbounds [99 x %"struct.ImStb::StbUndoRecord"], ptr %34, i64 0, i64 %39
  store ptr %40, ptr %3, align 8
  br label %41

41:                                               ; preds = %32, %17
  %42 = load ptr, ptr %3, align 8
  ret ptr %42
}

; Function Attrs: mustprogress uwtable
define internal noundef ptr @_ZN5ImStbL19stb_text_createundoEPNS_12StbUndoStateEiii(ptr noundef %0, i32 noundef %1, i32 noundef %2, i32 noundef %3) #8 {
  %5 = alloca ptr, align 8
  %6 = alloca ptr, align 8
  %7 = alloca i32, align 4
  %8 = alloca i32, align 4
  %9 = alloca i32, align 4
  %10 = alloca ptr, align 8
  %11 = alloca i32, align 4
  store ptr %0, ptr %6, align 8, !tbaa !255
  store i32 %1, ptr %7, align 4, !tbaa !9
  store i32 %2, ptr %8, align 4, !tbaa !9
  store i32 %3, ptr %9, align 4, !tbaa !9
  call void @llvm.lifetime.start.p0(i64 8, ptr %10) #17
  %12 = load ptr, ptr %6, align 8, !tbaa !255
  %13 = load i32, ptr %8, align 4, !tbaa !9
  %14 = call noundef ptr @_ZN5ImStbL27stb_text_create_undo_recordEPNS_12StbUndoStateEi(ptr noundef %12, i32 noundef %13)
  store ptr %14, ptr %10, align 8, !tbaa !255
  %15 = load ptr, ptr %10, align 8, !tbaa !255
  %16 = icmp eq ptr %15, null
  br i1 %16, label %17, label %18

17:                                               ; preds = %4
  store ptr null, ptr %5, align 8
  store i32 1, ptr %11, align 4
  br label %51

18:                                               ; preds = %4
  %19 = load i32, ptr %7, align 4, !tbaa !9
  %20 = load ptr, ptr %10, align 8, !tbaa !255
  %21 = getelementptr inbounds nuw %"struct.ImStb::StbUndoRecord", ptr %20, i32 0, i32 0
  store i32 %19, ptr %21, align 4, !tbaa !560
  %22 = load i32, ptr %8, align 4, !tbaa !9
  %23 = load ptr, ptr %10, align 8, !tbaa !255
  %24 = getelementptr inbounds nuw %"struct.ImStb::StbUndoRecord", ptr %23, i32 0, i32 1
  store i32 %22, ptr %24, align 4, !tbaa !559
  %25 = load i32, ptr %9, align 4, !tbaa !9
  %26 = load ptr, ptr %10, align 8, !tbaa !255
  %27 = getelementptr inbounds nuw %"struct.ImStb::StbUndoRecord", ptr %26, i32 0, i32 2
  store i32 %25, ptr %27, align 4, !tbaa !561
  %28 = load i32, ptr %8, align 4, !tbaa !9
  %29 = icmp eq i32 %28, 0
  br i1 %29, label %30, label %33

30:                                               ; preds = %18
  %31 = load ptr, ptr %10, align 8, !tbaa !255
  %32 = getelementptr inbounds nuw %"struct.ImStb::StbUndoRecord", ptr %31, i32 0, i32 3
  store i32 -1, ptr %32, align 4, !tbaa !557
  store ptr null, ptr %5, align 8
  store i32 1, ptr %11, align 4
  br label %51

33:                                               ; preds = %18
  %34 = load ptr, ptr %6, align 8, !tbaa !255
  %35 = getelementptr inbounds nuw %"struct.ImStb::StbUndoState", ptr %34, i32 0, i32 4
  %36 = load i32, ptr %35, align 4, !tbaa !555
  %37 = load ptr, ptr %10, align 8, !tbaa !255
  %38 = getelementptr inbounds nuw %"struct.ImStb::StbUndoRecord", ptr %37, i32 0, i32 3
  store i32 %36, ptr %38, align 4, !tbaa !557
  %39 = load i32, ptr %8, align 4, !tbaa !9
  %40 = load ptr, ptr %6, align 8, !tbaa !255
  %41 = getelementptr inbounds nuw %"struct.ImStb::StbUndoState", ptr %40, i32 0, i32 4
  %42 = load i32, ptr %41, align 4, !tbaa !555
  %43 = add nsw i32 %42, %39
  store i32 %43, ptr %41, align 4, !tbaa !555
  %44 = load ptr, ptr %6, align 8, !tbaa !255
  %45 = getelementptr inbounds nuw %"struct.ImStb::StbUndoState", ptr %44, i32 0, i32 1
  %46 = load ptr, ptr %10, align 8, !tbaa !255
  %47 = getelementptr inbounds nuw %"struct.ImStb::StbUndoRecord", ptr %46, i32 0, i32 3
  %48 = load i32, ptr %47, align 4, !tbaa !557
  %49 = sext i32 %48 to i64
  %50 = getelementptr inbounds [999 x i8], ptr %45, i64 0, i64 %49
  store ptr %50, ptr %5, align 8
  store i32 1, ptr %11, align 4
  br label %51

51:                                               ; preds = %33, %30, %17
  call void @llvm.lifetime.end.p0(i64 8, ptr %10) #17
  %52 = load ptr, ptr %5, align 8
  ret ptr %52
}