; Function Attrs: mustprogress nofree norecurse nosync nounwind memory(argmem: readwrite, inaccessiblemem: write) uwtable
define internal fastcc noundef ptr @_ZN5ImStbL19stb_text_createundoEPNS_12StbUndoStateEiii(ptr noundef captures(ret: address, provenance) initializes((2586, 2588), (2592, 2596)) %0, i32 noundef %1, i32 noundef %2, i32 noundef %3) unnamed_addr #36 {
  %5 = getelementptr inbounds nuw i8, ptr %0, i64 2586
  store i16 99, ptr %5, align 2, !tbaa !469
  %6 = getelementptr inbounds nuw i8, ptr %0, i64 2592
  store i32 999, ptr %6, align 4, !tbaa !476
  %7 = getelementptr inbounds nuw i8, ptr %0, i64 2584
  %8 = load i16, ptr %7, align 4, !tbaa !468
  %9 = icmp eq i16 %8, 99
  br i1 %9, label %10, label %37

10:                                               ; preds = %4
  %11 = getelementptr inbounds nuw i8, ptr %0, i64 12
  %12 = load i32, ptr %11, align 4, !tbaa !470
  %13 = icmp sgt i32 %12, -1
  br i1 %13, label %14, label %_ZN5ImStbL25stb_textedit_discard_undoEPNS_12StbUndoStateE.exit.i

14:                                               ; preds = %10
  %15 = getelementptr inbounds nuw i8, ptr %0, i64 4
  %16 = load i32, ptr %15, align 4, !tbaa !472
  %17 = getelementptr inbounds nuw i8, ptr %0, i64 2588
  %18 = load i32, ptr %17, align 4, !tbaa !475
  %19 = sub nsw i32 %18, %16
  store i32 %19, ptr %17, align 4, !tbaa !475
  %20 = getelementptr inbounds nuw i8, ptr %0, i64 1584
  %21 = sext i32 %16 to i64
  %22 = getelementptr inbounds i8, ptr %20, i64 %21
  %23 = sext i32 %19 to i64
  tail call void @llvm.memmove.p0.p0.i64(ptr nonnull align 4 %20, ptr nonnull align 1 %22, i64 %23, i1 false)
  %24 = load i16, ptr %7, align 4, !tbaa !468
  %25 = icmp sgt i16 %24, 0
  br i1 %25, label %.lr.ph.preheader.i.i, label %_ZN5ImStbL25stb_textedit_discard_undoEPNS_12StbUndoStateE.exit.i

.lr.ph.preheader.i.i:                             ; preds = %14
  %wide.trip.count.i.i = zext nneg i16 %24 to i64
  br label %.lr.ph.i.i

.lr.ph.i.i:                                       ; preds = %31, %.lr.ph.preheader.i.i
  %indvars.iv.i.i = phi i64 [ 0, %.lr.ph.preheader.i.i ], [ %indvars.iv.next.i.i, %31 ]
  %26 = getelementptr inbounds nuw [99 x %"struct.ImStb::StbUndoRecord"], ptr %0, i64 0, i64 %indvars.iv.i.i, i32 3
  %27 = load i32, ptr %26, align 4, !tbaa !470
  %28 = icmp sgt i32 %27, -1
  br i1 %28, label %29, label %31

29:                                               ; preds = %.lr.ph.i.i
  %30 = sub nsw i32 %27, %16
  store i32 %30, ptr %26, align 4, !tbaa !470
  br label %31

31:                                               ; preds = %29, %.lr.ph.i.i
  %indvars.iv.next.i.i = add nuw nsw i64 %indvars.iv.i.i, 1
  %exitcond.not.i.i = icmp eq i64 %indvars.iv.next.i.i, %wide.trip.count.i.i
  br i1 %exitcond.not.i.i, label %_ZN5ImStbL25stb_textedit_discard_undoEPNS_12StbUndoStateE.exit.i, label %.lr.ph.i.i, !llvm.loop !819

_ZN5ImStbL25stb_textedit_discard_undoEPNS_12StbUndoStateE.exit.i: ; preds = %31, %14, %10
  %32 = phi i16 [ %24, %14 ], [ 99, %10 ], [ %24, %31 ]
  %33 = add i16 %32, -1
  store i16 %33, ptr %7, align 4, !tbaa !468
  %34 = getelementptr inbounds nuw i8, ptr %0, i64 16
  %35 = sext i16 %33 to i64
  %36 = shl nsw i64 %35, 4
  tail call void @llvm.memmove.p0.p0.i64(ptr nonnull align 4 %0, ptr nonnull align 4 %34, i64 %36, i1 false)
  br label %37

37:                                               ; preds = %_ZN5ImStbL25stb_textedit_discard_undoEPNS_12StbUndoStateE.exit.i, %4
  %38 = icmp sgt i32 %2, 999
  br i1 %38, label %_ZN5ImStbL27stb_text_create_undo_recordEPNS_12StbUndoStateEi.exit.thread, label %.preheader.i

.preheader.i:                                     ; preds = %37
  %39 = getelementptr inbounds nuw i8, ptr %0, i64 2588
  %40 = load i32, ptr %39, align 4, !tbaa !475
  %41 = add nsw i32 %40, %2
  %42 = icmp sgt i32 %41, 999
  %.pre20.i = load i16, ptr %7, align 4, !tbaa !468
  br i1 %42, label %.lr.ph.i, label %76

.lr.ph.i:                                         ; preds = %.preheader.i
  %43 = getelementptr inbounds nuw i8, ptr %0, i64 12
  %44 = getelementptr inbounds nuw i8, ptr %0, i64 4
  %45 = getelementptr inbounds nuw i8, ptr %0, i64 1584
  %46 = getelementptr inbounds nuw i8, ptr %0, i64 16
  %47 = icmp sgt i16 %.pre20.i, 0
  tail call void @llvm.assume(i1 %47)
  br label %.lr.ph.split.i

_ZN5ImStbL27stb_text_create_undo_recordEPNS_12StbUndoStateEi.exit.thread: ; preds = %37
  store i16 0, ptr %7, align 4, !tbaa !468
  %48 = getelementptr inbounds nuw i8, ptr %0, i64 2588
  store i32 0, ptr %48, align 4, !tbaa !475
  br label %92

.lr.ph.split.i:                                   ; preds = %_ZN5ImStbL25stb_textedit_discard_undoEPNS_12StbUndoStateE.exit18.i, %.lr.ph.i
  %49 = phi i32 [ %73, %_ZN5ImStbL25stb_textedit_discard_undoEPNS_12StbUndoStateE.exit18.i ], [ %40, %.lr.ph.i ]
  %50 = load i16, ptr %7, align 4, !tbaa !468
  %51 = icmp sgt i16 %50, 0
  br i1 %51, label %52, label %_ZN5ImStbL25stb_textedit_discard_undoEPNS_12StbUndoStateE.exit18.i

52:                                               ; preds = %.lr.ph.split.i
  %53 = load i32, ptr %43, align 4, !tbaa !470
  %54 = icmp sgt i32 %53, -1
  br i1 %54, label %55, label %.loopexit.i11.i

55:                                               ; preds = %52
  %56 = load i32, ptr %44, align 4, !tbaa !472
  %57 = sub nsw i32 %49, %56
  store i32 %57, ptr %39, align 4, !tbaa !475
  %58 = sext i32 %56 to i64
  %59 = getelementptr inbounds i8, ptr %45, i64 %58
  %60 = sext i32 %57 to i64
  tail call void @llvm.memmove.p0.p0.i64(ptr nonnull align 4 %45, ptr nonnull align 1 %59, i64 %60, i1 false)
  %61 = load i16, ptr %7, align 4, !tbaa !468
  %62 = icmp sgt i16 %61, 0
  br i1 %62, label %.lr.ph.preheader.i12.i, label %.loopexit.i11.i

.lr.ph.preheader.i12.i:                           ; preds = %55
  %wide.trip.count.i13.i = zext nneg i16 %61 to i64
  br label %.lr.ph.i14.i

.lr.ph.i14.i:                                     ; preds = %68, %.lr.ph.preheader.i12.i
  %indvars.iv.i15.i = phi i64 [ 0, %.lr.ph.preheader.i12.i ], [ %indvars.iv.next.i16.i, %68 ]
  %63 = getelementptr inbounds nuw [99 x %"struct.ImStb::StbUndoRecord"], ptr %0, i64 0, i64 %indvars.iv.i15.i, i32 3
  %64 = load i32, ptr %63, align 4, !tbaa !470
  %65 = icmp sgt i32 %64, -1
  br i1 %65, label %66, label %68

66:                                               ; preds = %.lr.ph.i14.i
  %67 = sub nsw i32 %64, %56
  store i32 %67, ptr %63, align 4, !tbaa !470
  br label %68

68:                                               ; preds = %66, %.lr.ph.i14.i
  %indvars.iv.next.i16.i = add nuw nsw i64 %indvars.iv.i15.i, 1
  %exitcond.not.i17.i = icmp eq i64 %indvars.iv.next.i16.i, %wide.trip.count.i13.i
  br i1 %exitcond.not.i17.i, label %.loopexit.i11.i, label %.lr.ph.i14.i, !llvm.loop !819

.loopexit.i11.i:                                  ; preds = %68, %55, %52
  %69 = phi i16 [ %61, %55 ], [ %50, %52 ], [ %61, %68 ]
  %70 = add i16 %69, -1
  store i16 %70, ptr %7, align 4, !tbaa !468
  %71 = sext i16 %70 to i64
  %72 = shl nsw i64 %71, 4
  tail call void @llvm.memmove.p0.p0.i64(ptr nonnull align 4 %0, ptr nonnull align 4 %46, i64 %72, i1 false)
  %.pre.i = load i32, ptr %39, align 4, !tbaa !475
  br label %_ZN5ImStbL25stb_textedit_discard_undoEPNS_12StbUndoStateE.exit18.i

_ZN5ImStbL25stb_textedit_discard_undoEPNS_12StbUndoStateE.exit18.i: ; preds = %.loopexit.i11.i, %.lr.ph.split.i
  %73 = phi i32 [ %49, %.lr.ph.split.i ], [ %.pre.i, %.loopexit.i11.i ]
  %74 = add nsw i32 %73, %2
  %75 = icmp sgt i32 %74, 999
  br i1 %75, label %.lr.ph.split.i, label %._crit_edge.loopexit.i, !llvm.loop !820

._crit_edge.loopexit.i:                           ; preds = %_ZN5ImStbL25stb_textedit_discard_undoEPNS_12StbUndoStateE.exit18.i
  %.pre19.i = load i16, ptr %7, align 4, !tbaa !468
  br label %76

76:                                               ; preds = %._crit_edge.loopexit.i, %.preheader.i
  %77 = phi i32 [ %73, %._crit_edge.loopexit.i ], [ %40, %.preheader.i ]
  %78 = phi i16 [ %.pre19.i, %._crit_edge.loopexit.i ], [ %.pre20.i, %.preheader.i ]
  %79 = add i16 %78, 1
  store i16 %79, ptr %7, align 4, !tbaa !468
  %80 = sext i16 %78 to i64
  %81 = getelementptr inbounds [99 x %"struct.ImStb::StbUndoRecord"], ptr %0, i64 0, i64 %80
  store i32 %1, ptr %81, align 4, !tbaa !474
  %82 = getelementptr inbounds nuw i8, ptr %81, i64 4
  store i32 %2, ptr %82, align 4, !tbaa !472
  %83 = getelementptr inbounds nuw i8, ptr %81, i64 8
  store i32 %3, ptr %83, align 4, !tbaa !473
  %84 = icmp eq i32 %2, 0
  %85 = getelementptr inbounds nuw i8, ptr %81, i64 12
  br i1 %84, label %86, label %87

86:                                               ; preds = %76
  store i32 -1, ptr %85, align 4, !tbaa !470
  br label %92

87:                                               ; preds = %76
  store i32 %77, ptr %85, align 4, !tbaa !470
  %88 = add nsw i32 %77, %2
  store i32 %88, ptr %39, align 4, !tbaa !475
  %89 = getelementptr inbounds nuw i8, ptr %0, i64 1584
  %90 = sext i32 %77 to i64
  %91 = getelementptr inbounds [999 x i8], ptr %89, i64 0, i64 %90
  br label %92

92:                                               ; preds = %_ZN5ImStbL27stb_text_create_undo_recordEPNS_12StbUndoStateEi.exit.thread, %87, %86
  %.0 = phi ptr [ null, %86 ], [ %91, %87 ], [ null, %_ZN5ImStbL27stb_text_create_undo_recordEPNS_12StbUndoStateEi.exit.thread ]
  ret ptr %.0
}